; ModuleID = 'source-C-CXX/27/1717.c'
source_filename = "source-C-CXX/27/1717.c"
target datalayout = "e-m:e-p270:32:32-p271:32:32-p272:64:64-i64:64-f80:128-n8:16:32:64-S128"
target triple = "x86_64-pc-linux-gnu"

@.str = private unnamed_addr constant [4 x i8] c"%d,\00", align 1
@.str.1 = private unnamed_addr constant [3 x i8] c"%d\00", align 1

; Function Attrs: nounwind sspstrong uwtable
define dso_local i32 @main() local_unnamed_addr #0 {
  %1 = alloca [100 x i8], align 16
  %2 = getelementptr inbounds [100 x i8], [100 x i8]* %1, i64 0, i64 0
  call void @llvm.lifetime.start.p0i8(i64 100, i8* nonnull %2) #4
  %3 = call i32 (i8*, ...) bitcast (i32 (...)* @gets to i32 (i8*, ...)*)(i8* nonnull %2) #4
  br label %4

4:                                                ; preds = %51, %0
  %5 = phi i64 [ 0, %0 ], [ %52, %51 ]
  %6 = getelementptr inbounds [100 x i8], [100 x i8]* %1, i64 0, i64 %5
  %7 = load i8, i8* %6, align 1, !tbaa !5
  %8 = icmp eq i8 %7, 0
  br i1 %8, label %14, label %9

9:                                                ; preds = %4
  %10 = add nuw nsw i64 %5, 1
  %11 = getelementptr inbounds [100 x i8], [100 x i8]* %1, i64 0, i64 %10
  %12 = load i8, i8* %11, align 1, !tbaa !5
  %13 = icmp eq i8 %12, 0
  br i1 %13, label %14, label %36

14:                                               ; preds = %51, %46, %41, %36, %9, %4
  %15 = phi i64 [ %5, %4 ], [ %10, %9 ], [ %37, %36 ], [ %42, %41 ], [ %47, %46 ], [ 100, %51 ]
  %16 = add nuw i64 %15, 1
  %17 = and i64 %16, 4294967295
  br label %18

18:                                               ; preds = %14, %31
  %19 = phi i64 [ 0, %14 ], [ %33, %31 ]
  %20 = phi i32 [ 0, %14 ], [ %32, %31 ]
  %21 = getelementptr inbounds [100 x i8], [100 x i8]* %1, i64 0, i64 %19
  %22 = load i8, i8* %21, align 1, !tbaa !5
  switch i8 %22, label %23 [
    i8 32, label %25
    i8 0, label %29
  ]

23:                                               ; preds = %18
  %24 = add nsw i32 %20, 1
  br label %31

25:                                               ; preds = %18
  %26 = icmp eq i32 %20, 0
  br i1 %26, label %31, label %27

27:                                               ; preds = %25
  %28 = call i32 (i8*, ...) @printf(i8* nonnull dereferenceable(1) getelementptr inbounds ([4 x i8], [4 x i8]* @.str, i64 0, i64 0), i32 %20)
  br label %31

29:                                               ; preds = %18
  %30 = call i32 (i8*, ...) @printf(i8* nonnull dereferenceable(1) getelementptr inbounds ([3 x i8], [3 x i8]* @.str.1, i64 0, i64 0), i32 %20)
  br label %35

31:                                               ; preds = %23, %25, %27
  %32 = phi i32 [ %24, %23 ], [ 0, %27 ], [ 0, %25 ]
  %33 = add nuw nsw i64 %19, 1
  %34 = icmp eq i64 %33, %17
  br i1 %34, label %35, label %18, !llvm.loop !8

35:                                               ; preds = %31, %29
  call void @llvm.lifetime.end.p0i8(i64 100, i8* nonnull %2) #4
  ret i32 0

36:                                               ; preds = %9
  %37 = add nuw nsw i64 %5, 2
  %38 = getelementptr inbounds [100 x i8], [100 x i8]* %1, i64 0, i64 %37
  %39 = load i8, i8* %38, align 1, !tbaa !5
  %40 = icmp eq i8 %39, 0
  br i1 %40, label %14, label %41

41:                                               ; preds = %36
  %42 = add nuw nsw i64 %5, 3
  %43 = getelementptr inbounds [100 x i8], [100 x i8]* %1, i64 0, i64 %42
  %44 = load i8, i8* %43, align 1, !tbaa !5
  %45 = icmp eq i8 %44, 0
  br i1 %45, label %14, label %46

46:                                               ; preds = %41
  %47 = add nuw nsw i64 %5, 4
  %48 = getelementptr inbounds [100 x i8], [100 x i8]* %1, i64 0, i64 %47
  %49 = load i8, i8* %48, align 1, !tbaa !5
  %50 = icmp eq i8 %49, 0
  br i1 %50, label %14, label %51

51:                                               ; preds = %46
  %52 = add nuw nsw i64 %5, 5
  %53 = icmp eq i64 %52, 100
  br i1 %53, label %14, label %4, !llvm.loop !10
}

; Function Attrs: argmemonly mustprogress nofree nosync nounwind willreturn
declare void @llvm.lifetime.start.p0i8(i64 immarg, i8* nocapture) #1

declare i32 @gets(...) local_unnamed_addr #2

; Function Attrs: nofree nounwind
declare noundef i32 @printf(i8* nocapture noundef readonly, ...) local_unnamed_addr #3

; Function Attrs: argmemonly mustprogress nofree nosync nounwind willreturn
declare void @llvm.lifetime.end.p0i8(i64 immarg, i8* nocapture) #1


!llvm.module.flags = !{!0, !1, !2, !3}
!llvm.ident = !{!4}

!0 = !{i32 1, !"wchar_size", i32 4}
!1 = !{i32 7, !"PIC Level", i32 2}
!2 = !{i32 7, !"PIE Level", i32 2}
!3 = !{i32 7, !"uwtable", i32 1}
!4 = !{!"clang version 13.0.0"}
!5 = !{!6, !6, i64 0}
!6 = !{!"omnipotent char", !7, i64 0}
!7 = !{!"Simple C/C++ TBAA"}
!8 = distinct !{!8, !9}
!9 = !{!"llvm.loop.mustprogress"}
!10 = distinct !{!10, !9}
